target datalayout = "e-m:e-p270:32:32-p271:32:32-p272:64:64-i64:64-i128:128-f80:128-n8:16:32:64-S128"
target triple = "x86_64-pc-linux-gnu"

%"class.llvm::SmallVectorBase" = type { ptr, i32, i32 }
%"class.llvm::DIEValueList" = type { %"class.llvm::IntrusiveBackList" }
%"class.llvm::IntrusiveBackList" = type { %"struct.llvm::IntrusiveBackListBase" }
%"struct.llvm::IntrusiveBackListBase" = type { ptr }
%"class.llvm::AsmPrinter" = type <{ %"class.llvm::MachineFunctionPass", ptr, ptr, ptr, %"class.std::unique_ptr", ptr, ptr, ptr, ptr, ptr, ptr, ptr, ptr, ptr, %"class.llvm::MapVector", %"class.llvm::MapVector.7", ptr, %"class.llvm::DenseMap.16", ptr, %"class.std::unique_ptr.19", %"class.llvm::DenseMap.27", i8, [7 x i8], %"class.std::unique_ptr.30", %"class.llvm::DenseMap.38", ptr, ptr, %"class.llvm::SmallVector.41", i64, %"class.llvm::SmallVector.46", i64, %"class.llvm::StackMaps", %"class.std::unique_ptr.66", %"class.std::unique_ptr.74", ptr, %"class.std::unique_ptr.82", i32, i8, i8, i8, i8, %"class.llvm::SmallVector.90", ptr, i32, i32, i8, [7 x i8] }>
%"class.llvm::MachineFunctionPass" = type { %"class.llvm::FunctionPass.base", %"class.llvm::MachineFunctionProperties", %"class.llvm::MachineFunctionProperties", %"class.llvm::MachineFunctionProperties" }
%"class.llvm::FunctionPass.base" = type { %"class.llvm::Pass.base" }
%"class.llvm::Pass.base" = type <{ ptr, ptr, ptr, i32 }>
%"class.llvm::MachineFunctionProperties" = type { %"class.std::bitset" }
%"class.std::bitset" = type { %"struct.std::_Base_bitset" }
%"struct.std::_Base_bitset" = type { i64 }
%"class.std::unique_ptr" = type { %"struct.std::__uniq_ptr_data" }
%"struct.std::__uniq_ptr_data" = type { %"class.std::__uniq_ptr_impl" }
%"class.std::__uniq_ptr_impl" = type { %"class.std::tuple" }
%"class.std::tuple" = type { %"struct.std::_Tuple_impl" }
%"struct.std::_Tuple_impl" = type { %"struct.std::_Head_base.1" }
%"struct.std::_Head_base.1" = type { ptr }
%"class.llvm::MapVector" = type { %"class.llvm::DenseMap", %"class.llvm::SmallVector.2" }
%"class.llvm::DenseMap" = type <{ ptr, i32, i32, i32, [4 x i8] }>
%"class.llvm::SmallVector.2" = type { %"class.llvm::SmallVectorImpl.3" }
%"class.llvm::SmallVectorImpl.3" = type { %"class.llvm::SmallVectorTemplateBase.4" }
%"class.llvm::SmallVectorTemplateBase.4" = type { %"class.llvm::SmallVectorTemplateCommon.5" }
%"class.llvm::SmallVectorTemplateCommon.5" = type { %"class.llvm::SmallVectorBase" }
%"class.llvm::MapVector.7" = type { %"class.llvm::DenseMap.8", %"class.llvm::SmallVector.11" }
%"class.llvm::DenseMap.8" = type <{ ptr, i32, i32, i32, [4 x i8] }>
%"class.llvm::SmallVector.11" = type { %"class.llvm::SmallVectorImpl.12" }
%"class.llvm::SmallVectorImpl.12" = type { %"class.llvm::SmallVectorTemplateBase.13" }
%"class.llvm::SmallVectorTemplateBase.13" = type { %"class.llvm::SmallVectorTemplateCommon.14" }
%"class.llvm::SmallVectorTemplateCommon.14" = type { %"class.llvm::SmallVectorBase" }
%"class.llvm::DenseMap.16" = type <{ ptr, i32, i32, i32, [4 x i8] }>
%"class.std::unique_ptr.19" = type { %"struct.std::__uniq_ptr_data.20" }
%"struct.std::__uniq_ptr_data.20" = type { %"class.std::__uniq_ptr_impl.21" }
%"class.std::__uniq_ptr_impl.21" = type { %"class.std::tuple.22" }
%"class.std::tuple.22" = type { %"struct.std::_Tuple_impl.23" }
%"struct.std::_Tuple_impl.23" = type { %"struct.std::_Head_base.26" }
%"struct.std::_Head_base.26" = type { ptr }
%"class.llvm::DenseMap.27" = type <{ ptr, i32, i32, i32, [4 x i8] }>
%"class.std::unique_ptr.30" = type { %"struct.std::__uniq_ptr_data.31" }
%"struct.std::__uniq_ptr_data.31" = type { %"class.std::__uniq_ptr_impl.32" }
%"class.std::__uniq_ptr_impl.32" = type { %"class.std::tuple.33" }
%"class.std::tuple.33" = type { %"struct.std::_Tuple_impl.34" }
%"struct.std::_Tuple_impl.34" = type { %"struct.std::_Head_base.37" }
%"struct.std::_Head_base.37" = type { ptr }
%"class.llvm::DenseMap.38" = type <{ ptr, i32, i32, i32, [4 x i8] }>
%"class.llvm::SmallVector.41" = type { %"class.llvm::SmallVectorImpl.42", %"struct.llvm::SmallVectorStorage.45" }
%"class.llvm::SmallVectorImpl.42" = type { %"class.llvm::SmallVectorTemplateBase.43" }
%"class.llvm::SmallVectorTemplateBase.43" = type { %"class.llvm::SmallVectorTemplateCommon.44" }
%"class.llvm::SmallVectorTemplateCommon.44" = type { %"class.llvm::SmallVectorBase" }
%"struct.llvm::SmallVectorStorage.45" = type { [16 x i8] }
%"class.llvm::SmallVector.46" = type { %"class.llvm::SmallVectorImpl.47", %"struct.llvm::SmallVectorStorage.50" }
%"class.llvm::SmallVectorImpl.47" = type { %"class.llvm::SmallVectorTemplateBase.48" }
%"class.llvm::SmallVectorTemplateBase.48" = type { %"class.llvm::SmallVectorTemplateCommon.49" }
%"class.llvm::SmallVectorTemplateCommon.49" = type { %"class.llvm::SmallVectorBase" }
%"struct.llvm::SmallVectorStorage.50" = type { [8 x i8] }
%"class.llvm::StackMaps" = type { ptr, %"class.std::vector", %"class.llvm::MapVector.51", %"class.llvm::MapVector.60" }
%"class.std::vector" = type { %"struct.std::_Vector_base" }
%"struct.std::_Vector_base" = type { %"struct.std::_Vector_base<llvm::StackMaps::CallsiteInfo, std::allocator<llvm::StackMaps::CallsiteInfo>>::_Vector_impl" }
%"struct.std::_Vector_base<llvm::StackMaps::CallsiteInfo, std::allocator<llvm::StackMaps::CallsiteInfo>>::_Vector_impl" = type { %"struct.std::_Vector_base<llvm::StackMaps::CallsiteInfo, std::allocator<llvm::StackMaps::CallsiteInfo>>::_Vector_impl_data" }
%"struct.std::_Vector_base<llvm::StackMaps::CallsiteInfo, std::allocator<llvm::StackMaps::CallsiteInfo>>::_Vector_impl_data" = type { ptr, ptr, ptr }
%"class.llvm::MapVector.51" = type { %"class.llvm::DenseMap.52", %"class.llvm::SmallVector.55" }
%"class.llvm::DenseMap.52" = type <{ ptr, i32, i32, i32, [4 x i8] }>
%"class.llvm::SmallVector.55" = type { %"class.llvm::SmallVectorImpl.56" }
%"class.llvm::SmallVectorImpl.56" = type { %"class.llvm::SmallVectorTemplateBase.57" }
%"class.llvm::SmallVectorTemplateBase.57" = type { %"class.llvm::SmallVectorTemplateCommon.58" }
%"class.llvm::SmallVectorTemplateCommon.58" = type { %"class.llvm::SmallVectorBase" }
%"class.llvm::MapVector.60" = type { %"class.llvm::DenseMap.8", %"class.llvm::SmallVector.61" }
%"class.llvm::SmallVector.61" = type { %"class.llvm::SmallVectorImpl.62" }
%"class.llvm::SmallVectorImpl.62" = type { %"class.llvm::SmallVectorTemplateBase.63" }
%"class.llvm::SmallVectorTemplateBase.63" = type { %"class.llvm::SmallVectorTemplateCommon.64" }
%"class.llvm::SmallVectorTemplateCommon.64" = type { %"class.llvm::SmallVectorBase" }
%"class.std::unique_ptr.66" = type { %"struct.std::__uniq_ptr_data.67" }
%"struct.std::__uniq_ptr_data.67" = type { %"class.std::__uniq_ptr_impl.68" }
%"class.std::__uniq_ptr_impl.68" = type { %"class.std::tuple.69" }
%"class.std::tuple.69" = type { %"struct.std::_Tuple_impl.70" }
%"struct.std::_Tuple_impl.70" = type { %"struct.std::_Head_base.73" }
%"struct.std::_Head_base.73" = type { ptr }
%"class.std::unique_ptr.74" = type { %"struct.std::__uniq_ptr_data.75" }
%"struct.std::__uniq_ptr_data.75" = type { %"class.std::__uniq_ptr_impl.76" }
%"class.std::__uniq_ptr_impl.76" = type { %"class.std::tuple.77" }
%"class.std::tuple.77" = type { %"struct.std::_Tuple_impl.78" }
%"struct.std::_Tuple_impl.78" = type { %"struct.std::_Head_base.81" }
%"struct.std::_Head_base.81" = type { ptr }
%"class.std::unique_ptr.82" = type { %"struct.std::__uniq_ptr_data.83" }
%"struct.std::__uniq_ptr_data.83" = type { %"class.std::__uniq_ptr_impl.84" }
%"class.std::__uniq_ptr_impl.84" = type { %"class.std::tuple.85" }
%"class.std::tuple.85" = type { %"struct.std::_Tuple_impl.86" }
%"struct.std::_Tuple_impl.86" = type { %"struct.std::_Head_base.89" }
%"struct.std::_Head_base.89" = type { ptr }
%"class.llvm::SmallVector.90" = type { %"class.llvm::SmallVectorImpl.91", %"struct.llvm::SmallVectorStorage.94" }
%"class.llvm::SmallVectorImpl.91" = type { %"class.llvm::SmallVectorTemplateBase.92" }
%"class.llvm::SmallVectorTemplateBase.92" = type { %"class.llvm::SmallVectorTemplateCommon.93" }
%"class.llvm::SmallVectorTemplateCommon.93" = type { %"class.llvm::SmallVectorBase" }
%"struct.llvm::SmallVectorStorage.94" = type { [160 x i8] }
%"class.llvm::DwarfUnit" = type { %"class.llvm::DIEUnit", i32, ptr, %"class.llvm::BumpPtrAllocatorImpl", ptr, ptr, ptr, ptr, ptr, ptr, %"class.llvm::DenseMap.111", %"class.std::vector.114", %"class.std::vector.119", %"class.llvm::DenseMap.124" }
%"class.llvm::DIEUnit" = type { ptr, %"class.llvm::DIE", ptr, i64 }
%"class.llvm::DIE" = type { %"struct.llvm::IntrusiveBackListNode", %"class.llvm::DIEValueList", i32, i32, i32, i16, i8, %"class.llvm::IntrusiveBackList.95", %"class.llvm::PointerUnion" }
%"struct.llvm::IntrusiveBackListNode" = type { %"class.llvm::PointerIntPair" }
%"class.llvm::PointerIntPair" = type { %"struct.llvm::detail::PunnedPointer" }
%"struct.llvm::detail::PunnedPointer" = type { [8 x i8] }
%"class.llvm::IntrusiveBackList.95" = type { %"struct.llvm::IntrusiveBackListBase" }
%"class.llvm::PointerUnion" = type { %"class.llvm::pointer_union_detail::PointerUnionMembers" }
%"class.llvm::pointer_union_detail::PointerUnionMembers" = type { %"class.llvm::pointer_union_detail::PointerUnionMembers.96" }
%"class.llvm::pointer_union_detail::PointerUnionMembers.96" = type { %"class.llvm::pointer_union_detail::PointerUnionMembers.97" }
%"class.llvm::pointer_union_detail::PointerUnionMembers.97" = type { %"class.llvm::PointerIntPair.98" }
%"class.llvm::PointerIntPair.98" = type { %"struct.llvm::detail::PunnedPointer.99" }
%"struct.llvm::detail::PunnedPointer.99" = type { [8 x i8] }
%"class.llvm::BumpPtrAllocatorImpl" = type { ptr, ptr, %"class.llvm::SmallVector.101", %"class.llvm::SmallVector.106", i64, i64 }
%"class.llvm::SmallVector.101" = type { %"class.llvm::SmallVectorImpl.102", %"struct.llvm::SmallVectorStorage.105" }
%"class.llvm::SmallVectorImpl.102" = type { %"class.llvm::SmallVectorTemplateBase.103" }
%"class.llvm::SmallVectorTemplateBase.103" = type { %"class.llvm::SmallVectorTemplateCommon.104" }
%"class.llvm::SmallVectorTemplateCommon.104" = type { %"class.llvm::SmallVectorBase" }
%"struct.llvm::SmallVectorStorage.105" = type { [32 x i8] }
%"class.llvm::SmallVector.106" = type { %"class.llvm::SmallVectorImpl.107" }
%"class.llvm::SmallVectorImpl.107" = type { %"class.llvm::SmallVectorTemplateBase.108" }
%"class.llvm::SmallVectorTemplateBase.108" = type { %"class.llvm::SmallVectorTemplateCommon.109" }
%"class.llvm::SmallVectorTemplateCommon.109" = type { %"class.llvm::SmallVectorBase" }
%"class.llvm::DenseMap.111" = type <{ ptr, i32, i32, i32, [4 x i8] }>
%"class.std::vector.114" = type { %"struct.std::_Vector_base.115" }
%"struct.std::_Vector_base.115" = type { %"struct.std::_Vector_base<llvm::DIEBlock *, std::allocator<llvm::DIEBlock *>>::_Vector_impl" }
%"struct.std::_Vector_base<llvm::DIEBlock *, std::allocator<llvm::DIEBlock *>>::_Vector_impl" = type { %"struct.std::_Vector_base<llvm::DIEBlock *, std::allocator<llvm::DIEBlock *>>::_Vector_impl_data" }
%"struct.std::_Vector_base<llvm::DIEBlock *, std::allocator<llvm::DIEBlock *>>::_Vector_impl_data" = type { ptr, ptr, ptr }
%"class.std::vector.119" = type { %"struct.std::_Vector_base.120" }
%"struct.std::_Vector_base.120" = type { %"struct.std::_Vector_base<llvm::DIELoc *, std::allocator<llvm::DIELoc *>>::_Vector_impl" }
%"struct.std::_Vector_base<llvm::DIELoc *, std::allocator<llvm::DIELoc *>>::_Vector_impl" = type { %"struct.std::_Vector_base<llvm::DIELoc *, std::allocator<llvm::DIELoc *>>::_Vector_impl_data" }
%"struct.std::_Vector_base<llvm::DIELoc *, std::allocator<llvm::DIELoc *>>::_Vector_impl_data" = type { ptr, ptr, ptr }
%"class.llvm::DenseMap.124" = type <{ ptr, i32, i32, i32, [4 x i8] }>
%"class.llvm::SmallVectorBase.328" = type { ptr, i64, i64 }
%"class.std::vector.330" = type { %"struct.std::_Vector_base.331" }
%"struct.std::_Vector_base.331" = type { %"struct.std::_Vector_base<std::__cxx11::basic_string<char>, std::allocator<std::__cxx11::basic_string<char>>>::_Vector_impl" }
%"struct.std::_Vector_base<std::__cxx11::basic_string<char>, std::allocator<std::__cxx11::basic_string<char>>>::_Vector_impl" = type { %"struct.std::_Vector_base<std::__cxx11::basic_string<char>, std::allocator<std::__cxx11::basic_string<char>>>::_Vector_impl_data" }
%"struct.std::_Vector_base<std::__cxx11::basic_string<char>, std::allocator<std::__cxx11::basic_string<char>>>::_Vector_impl_data" = type { ptr, ptr, ptr }
%"class.std::__cxx11::basic_string" = type { %"struct.std::__cxx11::basic_string<char>::_Alloc_hider", i64, %union.anon }
%"struct.std::__cxx11::basic_string<char>::_Alloc_hider" = type { ptr }
%union.anon = type { i64, [8 x i8] }
%"class.llvm::TargetMachine" = type { ptr, ptr, %"class.llvm::DataLayout", %"class.llvm::Triple", %"class.std::__cxx11::basic_string", %"class.std::__cxx11::basic_string", i32, i32, i64, i32, %"class.std::unique_ptr.656", %"class.std::unique_ptr.664", %"class.std::unique_ptr.672", %"class.std::unique_ptr.680", i8, [7 x i8], %"class.std::optional.688", %"class.llvm::TargetOptions" }
%"class.llvm::DataLayout" = type { i8, i32, i32, i32, %"struct.llvm::MaybeAlign", %"struct.llvm::MaybeAlign", i32, i32, %"class.llvm::SmallVector.609", %"class.llvm::SmallVector.614", %"class.llvm::SmallVector.619", %"class.llvm::SmallVector.621", %"class.llvm::SmallVector.623", %"class.std::__cxx11::basic_string", %"struct.llvm::Align", %"struct.llvm::Align", ptr, %"class.llvm::SmallVector.628" }
%"struct.llvm::MaybeAlign" = type { %"class.std::optional.603" }
%"class.std::optional.603" = type { %"struct.std::_Optional_base.604" }
%"struct.std::_Optional_base.604" = type { %"struct.std::_Optional_payload.606" }
%"struct.std::_Optional_payload.606" = type { %"struct.std::_Optional_payload_base.607" }
%"struct.std::_Optional_payload_base.607" = type { %"union.std::_Optional_payload_base<llvm::Align>::_Storage", i8 }
%"union.std::_Optional_payload_base<llvm::Align>::_Storage" = type { %"struct.std::_Optional_payload_base<llvm::Align>::_Empty_byte" }
%"struct.std::_Optional_payload_base<llvm::Align>::_Empty_byte" = type { i8 }
%"class.llvm::SmallVector.609" = type { %"class.llvm::SmallVectorImpl.610", %"struct.llvm::SmallVectorStorage.613" }
%"class.llvm::SmallVectorImpl.610" = type { %"class.llvm::SmallVectorTemplateBase.611" }
%"class.llvm::SmallVectorTemplateBase.611" = type { %"class.llvm::SmallVectorTemplateCommon.612" }
%"class.llvm::SmallVectorTemplateCommon.612" = type { %"class.llvm::SmallVectorBase.328" }
%"struct.llvm::SmallVectorStorage.613" = type { [8 x i8] }
%"class.llvm::SmallVector.614" = type { %"class.llvm::SmallVectorImpl.615", %"struct.llvm::SmallVectorStorage.618" }
%"class.llvm::SmallVectorImpl.615" = type { %"class.llvm::SmallVectorTemplateBase.616" }
%"class.llvm::SmallVectorTemplateBase.616" = type { %"class.llvm::SmallVectorTemplateCommon.617" }
%"class.llvm::SmallVectorTemplateCommon.617" = type { %"class.llvm::SmallVectorBase" }
%"struct.llvm::SmallVectorStorage.618" = type { [48 x i8] }
%"class.llvm::SmallVector.619" = type { %"class.llvm::SmallVectorImpl.615", %"struct.llvm::SmallVectorStorage.620" }
%"struct.llvm::SmallVectorStorage.620" = type { [32 x i8] }
%"class.llvm::SmallVector.621" = type { %"class.llvm::SmallVectorImpl.615", %"struct.llvm::SmallVectorStorage.622" }
%"struct.llvm::SmallVectorStorage.622" = type { [80 x i8] }
%"class.llvm::SmallVector.623" = type { %"class.llvm::SmallVectorImpl.624", %"struct.llvm::SmallVectorStorage.627" }
%"class.llvm::SmallVectorImpl.624" = type { %"class.llvm::SmallVectorTemplateBase.625" }
%"class.llvm::SmallVectorTemplateBase.625" = type { %"class.llvm::SmallVectorTemplateCommon.626" }
%"class.llvm::SmallVectorTemplateCommon.626" = type { %"class.llvm::SmallVectorBase" }
%"struct.llvm::SmallVectorStorage.627" = type { [128 x i8] }
%"struct.llvm::Align" = type { i8 }
%"class.llvm::SmallVector.628" = type { %"class.llvm::SmallVectorImpl.629", %"struct.llvm::SmallVectorStorage.632" }
%"class.llvm::SmallVectorImpl.629" = type { %"class.llvm::SmallVectorTemplateBase.630" }
%"class.llvm::SmallVectorTemplateBase.630" = type { %"class.llvm::SmallVectorTemplateCommon.631" }
%"class.llvm::SmallVectorTemplateCommon.631" = type { %"class.llvm::SmallVectorBase" }
%"struct.llvm::SmallVectorStorage.632" = type { [32 x i8] }
%"class.llvm::Triple" = type { %"class.std::__cxx11::basic_string", i32, i32, i32, i32, i32, i32 }
%"class.std::unique_ptr.656" = type { %"struct.std::__uniq_ptr_data.657" }
%"struct.std::__uniq_ptr_data.657" = type { %"class.std::__uniq_ptr_impl.658" }
%"class.std::__uniq_ptr_impl.658" = type { %"class.std::tuple.659" }
%"class.std::tuple.659" = type { %"struct.std::_Tuple_impl.660" }
%"struct.std::_Tuple_impl.660" = type { %"struct.std::_Head_base.663" }
%"struct.std::_Head_base.663" = type { ptr }
%"class.std::unique_ptr.664" = type { %"struct.std::__uniq_ptr_data.665" }
%"struct.std::__uniq_ptr_data.665" = type { %"class.std::__uniq_ptr_impl.666" }
%"class.std::__uniq_ptr_impl.666" = type { %"class.std::tuple.667" }
%"class.std::tuple.667" = type { %"struct.std::_Tuple_impl.668" }
%"struct.std::_Tuple_impl.668" = type { %"struct.std::_Head_base.671" }
%"struct.std::_Head_base.671" = type { ptr }
%"class.std::unique_ptr.672" = type { %"struct.std::__uniq_ptr_data.673" }
%"struct.std::__uniq_ptr_data.673" = type { %"class.std::__uniq_ptr_impl.674" }
%"class.std::__uniq_ptr_impl.674" = type { %"class.std::tuple.675" }
%"class.std::tuple.675" = type { %"struct.std::_Tuple_impl.676" }
%"struct.std::_Tuple_impl.676" = type { %"struct.std::_Head_base.679" }
%"struct.std::_Head_base.679" = type { ptr }
%"class.std::unique_ptr.680" = type { %"struct.std::__uniq_ptr_data.681" }
%"struct.std::__uniq_ptr_data.681" = type { %"class.std::__uniq_ptr_impl.682" }
%"class.std::__uniq_ptr_impl.682" = type { %"class.std::tuple.683" }
%"class.std::tuple.683" = type { %"struct.std::_Tuple_impl.684" }
%"struct.std::_Tuple_impl.684" = type { %"struct.std::_Head_base.687" }
%"struct.std::_Head_base.687" = type { ptr }
%"class.std::optional.688" = type { %"struct.std::_Optional_base.689" }
%"struct.std::_Optional_base.689" = type { %"struct.std::_Optional_payload.691" }
%"struct.std::_Optional_payload.691" = type { %"struct.std::_Optional_payload.base.695", [7 x i8] }
%"struct.std::_Optional_payload.base.695" = type { %"struct.std::_Optional_payload_base.base.694" }
%"struct.std::_Optional_payload_base.base.694" = type <{ %"union.std::_Optional_payload_base<llvm::PGOOptions>::_Storage", i8 }>
%"union.std::_Optional_payload_base<llvm::PGOOptions>::_Storage" = type { %"struct.llvm::PGOOptions" }
%"struct.llvm::PGOOptions" = type { %"class.std::__cxx11::basic_string", %"class.std::__cxx11::basic_string", %"class.std::__cxx11::basic_string", %"class.std::__cxx11::basic_string", i32, i32, i32, i8, i8, i8, %"class.llvm::IntrusiveRefCntPtr" }
%"class.llvm::IntrusiveRefCntPtr" = type { ptr }
%"class.llvm::TargetOptions" = type { %"struct.std::pair.698", i16, i32, i32, i32, i32, %"class.std::shared_ptr", i16, %"class.std::__cxx11::basic_string", i32, i32, i32, i32, i32, i32, %"struct.llvm::DenormalMode", %"struct.llvm::DenormalMode", i32, %"class.llvm::MCTargetOptions", %"class.std::__cxx11::basic_string" }
%"struct.std::pair.698" = type { i32, i32 }
%"class.std::shared_ptr" = type { %"class.std::__shared_ptr" }
%"class.std::__shared_ptr" = type { ptr, %"class.std::__shared_count" }
%"class.std::__shared_count" = type { ptr }
%"struct.llvm::DenormalMode" = type { i8, i8 }
%"class.llvm::MCTargetOptions" = type <{ i16, i8, i8, i8, i8, [2 x i8], i32, i32, i32, i32, %"class.std::__cxx11::basic_string", %"class.std::__cxx11::basic_string", %"class.std::__cxx11::basic_string", %"class.std::__cxx11::basic_string", ptr, %"class.llvm::ArrayRef.700", %"class.std::vector.330", i8, [7 x i8] }>
%"class.llvm::ArrayRef.700" = type { ptr, i64 }

; Function Attrs: mustprogress nounwind uwtable
define dso_local noundef zeroext i1 @_ZNK4llvm9DwarfUnit23isCompatibleWithVersionEt(ptr noundef nonnull align 8 dereferenceable(328) %0, i16 noundef zeroext %1) #0 align 2 {
  %3 = alloca ptr, align 8
  %4 = alloca i16, align 2
  store ptr %0, ptr %3, align 8
  store i16 %1, ptr %4, align 2
  %5 = load ptr, ptr %3, align 8
  %6 = getelementptr inbounds nuw %"class.llvm::DwarfUnit", ptr %5, i32 0, i32 4
  %7 = load ptr, ptr %6, align 8
  %8 = getelementptr inbounds nuw %"class.llvm::AsmPrinter", ptr %7, i32 0, i32 1
  %9 = load ptr, ptr %8, align 8
  %10 = getelementptr inbounds nuw %"class.llvm::TargetMachine", ptr %9, i32 0, i32 17
  %11 = getelementptr inbounds nuw %"class.llvm::TargetOptions", ptr %10, i32 0, i32 7
  %12 = load i16, ptr %11, align 8
  %13 = lshr i16 %12, 6
  %14 = and i16 %13, 1
  %15 = zext i16 %14 to i32
  %16 = icmp ne i32 %15, 0
  br i1 %16, label %17, label %25

17:                                               ; preds = %2
  %18 = getelementptr inbounds nuw %"class.llvm::DwarfUnit", ptr %5, i32 0, i32 7
  %19 = load ptr, ptr %18, align 8
  %20 = call noundef zeroext i16 @_ZNK4llvm10DwarfDebug15getDwarfVersionEv(ptr noundef nonnull align 8 dereferenceable(5828) %19)
  %21 = zext i16 %20 to i32
  %22 = load i16, ptr %4, align 2
  %23 = zext i16 %22 to i32
  %24 = icmp sge i32 %21, %23
  br label %25

25:                                               ; preds = %17, %2
  %26 = phi i1 [ true, %2 ], [ %24, %17 ]
  ret i1 %26
}