; Function Attrs: mustprogress nounwind uwtable
define dso_local noundef zeroext i1 @_ZNK4llvm9DwarfUnit23isCompatibleWithVersionEt(ptr nocapture noundef nonnull readonly align 8 dereferenceable(328) %0, i16 noundef zeroext %1) local_unnamed_addr #0 align 2 {
  %3 = getelementptr inbounds nuw i8, ptr %0, i64 184
  %4 = load ptr, ptr %3, align 8
  %5 = getelementptr inbounds nuw i8, ptr %4, i64 56
  %6 = load ptr, ptr %5, align 8
  %7 = getelementptr inbounds i8, ptr %6, i64 920
  %8 = load i16, ptr %7, align 8
  %9 = and i16 %8, 64
  %.not = icmp eq i16 %9, 0
  br i1 %.not, label %15, label %10

10:                                               ; preds = %2
  %11 = getelementptr inbounds nuw i8, ptr %0, i64 208
  %12 = load ptr, ptr %11, align 8
  %13 = tail call noundef zeroext i16 @_ZNK4llvm10DwarfDebug15getDwarfVersionEv(ptr noundef nonnull align 8 dereferenceable(5828) %12) #19
  %14 = icmp uge i16 %13, %1
  br label %15

15:                                               ; preds = %10, %2
  %16 = phi i1 [ true, %2 ], [ %14, %10 ]
  ret i1 %16
}